ccollections
defaultdict
p1
(c__builtin__
list
p2
tRp3
I0
(lp4
I1
aI2
aI3
aI4
asI1
(lp5
I0
aI2
aI4
aI5
aI7
aI8
aI9
asI2
(lp6
I0
aI1
aI3
aI5
aI6
aI7
asI3
(lp7
I0
aI9
aI2
aI6
asI4
(lp8
I0
aI1
aI6
asI5
(lp9
I1
aI2
asI6
(lp10
I9
aI2
aI3
aI4
asI7
(lp11
I8
aI1
aI2
aI9
asI8
(lp12
I1
aI7
asI9
(lp13
I1
aI3
aI6
aI7
as.